target datalayout = "e-m:e-p270:32:32-p271:32:32-p272:64:64-i64:64-i128:128-f80:128-n8:16:32:64-S128"
target triple = "x86_64-pc-linux-gnu"

%struct.UPropsVectors = type { ptr, i32, i32, i32, i32, i8 }

; Function Attrs: inlinehint mustprogress nounwind uwtable
define internal noundef signext i8 @_ZL9U_FAILURE10UErrorCode(i32 noundef %0) #2 {
  %2 = alloca i32, align 4
  store i32 %0, ptr %2, align 4, !tbaa !9
  %3 = load i32, ptr %2, align 4, !tbaa !9
  %4 = icmp sgt i32 %3, 0
  %5 = zext i1 %4 to i8
  ret i8 %5
}

; Function Attrs: mustprogress uwtable
define ptr @upvec_cloneArray_77(ptr noundef %0, ptr noundef %1, ptr noundef %2, ptr noundef %3) #0 {
  %5 = alloca ptr, align 8
  %6 = alloca ptr, align 8
  %7 = alloca ptr, align 8
  %8 = alloca ptr, align 8
  %9 = alloca ptr, align 8
  %10 = alloca ptr, align 8
  %11 = alloca i32, align 4
  %12 = alloca i32, align 4
  store ptr %0, ptr %6, align 8, !tbaa !11
  store ptr %1, ptr %7, align 8, !tbaa !13
  store ptr %2, ptr %8, align 8, !tbaa !13
  store ptr %3, ptr %9, align 8, !tbaa !7
  call void @llvm.lifetime.start.p0(i64 8, ptr %10) #9
  call void @llvm.lifetime.start.p0(i64 4, ptr %11) #9
  %13 = load ptr, ptr %9, align 8, !tbaa !7
  %14 = load i32, ptr %13, align 4, !tbaa !9
  %15 = call noundef signext i8 @_ZL9U_FAILURE10UErrorCode(i32 noundef %14)
  %16 = icmp ne i8 %15, 0
  br i1 %16, label %17, label %18

17:                                               ; preds = %4
  store ptr null, ptr %5, align 8
  store i32 1, ptr %12, align 4
  br label %70

18:                                               ; preds = %4
  %19 = load ptr, ptr %6, align 8, !tbaa !11
  %20 = getelementptr inbounds nuw %struct.UPropsVectors, ptr %19, i32 0, i32 5
  %21 = load i8, ptr %20, align 8, !tbaa !22
  %22 = icmp ne i8 %21, 0
  br i1 %22, label %25, label %23

23:                                               ; preds = %18
  %24 = load ptr, ptr %9, align 8, !tbaa !7
  store i32 1, ptr %24, align 4, !tbaa !9
  store ptr null, ptr %5, align 8
  store i32 1, ptr %12, align 4
  br label %70

25:                                               ; preds = %18
  %26 = load ptr, ptr %6, align 8, !tbaa !11
  %27 = getelementptr inbounds nuw %struct.UPropsVectors, ptr %26, i32 0, i32 3
  %28 = load i32, ptr %27, align 8, !tbaa !19
  %29 = load ptr, ptr %6, align 8, !tbaa !11
  %30 = getelementptr inbounds nuw %struct.UPropsVectors, ptr %29, i32 0, i32 1
  %31 = load i32, ptr %30, align 8, !tbaa !17
  %32 = sub nsw i32 %31, 2
  %33 = mul nsw i32 %28, %32
  %34 = mul nsw i32 %33, 4
  store i32 %34, ptr %11, align 4, !tbaa !3
  %35 = load i32, ptr %11, align 4, !tbaa !3
  %36 = sext i32 %35 to i64
  %37 = call noalias ptr @uprv_malloc_77(i64 noundef %36) #10
  store ptr %37, ptr %10, align 8, !tbaa !13
  %38 = load ptr, ptr %10, align 8, !tbaa !13
  %39 = icmp eq ptr %38, null
  br i1 %39, label %40, label %42

40:                                               ; preds = %25
  %41 = load ptr, ptr %9, align 8, !tbaa !7
  store i32 7, ptr %41, align 4, !tbaa !9
  store ptr null, ptr %5, align 8
  store i32 1, ptr %12, align 4
  br label %70

42:                                               ; preds = %25
  br label %43

43:                                               ; preds = %42
  %44 = load ptr, ptr %10, align 8, !tbaa !13
  %45 = load ptr, ptr %6, align 8, !tbaa !11
  %46 = getelementptr inbounds nuw %struct.UPropsVectors, ptr %45, i32 0, i32 0
  %47 = load ptr, ptr %46, align 8, !tbaa !15
  %48 = load i32, ptr %11, align 4, !tbaa !3
  %49 = sext i32 %48 to i64
  call void @llvm.memcpy.p0.p0.i64(ptr align 4 %44, ptr align 4 %47, i64 %49, i1 false)
  br label %50

50:                                               ; preds = %43
  br label %51

51:                                               ; preds = %50
  %52 = load ptr, ptr %7, align 8, !tbaa !13
  %53 = icmp ne ptr %52, null
  br i1 %53, label %54, label %59

54:                                               ; preds = %51
  %55 = load ptr, ptr %6, align 8, !tbaa !11
  %56 = getelementptr inbounds nuw %struct.UPropsVectors, ptr %55, i32 0, i32 3
  %57 = load i32, ptr %56, align 8, !tbaa !19
  %58 = load ptr, ptr %7, align 8, !tbaa !13
  store i32 %57, ptr %58, align 4, !tbaa !3
  br label %59

59:                                               ; preds = %54, %51
  %60 = load ptr, ptr %8, align 8, !tbaa !13
  %61 = icmp ne ptr %60, null
  br i1 %61, label %62, label %68

62:                                               ; preds = %59
  %63 = load ptr, ptr %6, align 8, !tbaa !11
  %64 = getelementptr inbounds nuw %struct.UPropsVectors, ptr %63, i32 0, i32 1
  %65 = load i32, ptr %64, align 8, !tbaa !17
  %66 = sub nsw i32 %65, 2
  %67 = load ptr, ptr %8, align 8, !tbaa !13
  store i32 %66, ptr %67, align 4, !tbaa !3
  br label %68

68:                                               ; preds = %62, %59
  %69 = load ptr, ptr %10, align 8, !tbaa !13
  store ptr %69, ptr %5, align 8
  store i32 1, ptr %12, align 4
  br label %70

70:                                               ; preds = %68, %40, %23, %17
  call void @llvm.lifetime.end.p0(i64 4, ptr %11) #9
  call void @llvm.lifetime.end.p0(i64 8, ptr %10) #9
  %71 = load ptr, ptr %5, align 8
  ret ptr %71
}