; Function Attrs: mustprogress uwtable
define noalias ptr @upvec_cloneArray_77(ptr noundef readonly captures(none) %0, ptr noundef writeonly %1, ptr noundef writeonly %2, ptr noundef captures(none) %3) local_unnamed_addr #0 {
  %5 = load i32, ptr %3, align 4, !tbaa !3
  %6 = icmp slt i32 %5, 1
  br i1 %6, label %7, label %31

7:                                                ; preds = %4
  %8 = getelementptr inbounds nuw i8, ptr %0, i64 24
  %9 = load i8, ptr %8, align 8, !tbaa !18
  %.not21 = icmp eq i8 %9, 0
  br i1 %.not21, label %10, label %11

10:                                               ; preds = %7
  store i32 1, ptr %3, align 4, !tbaa !3
  br label %31

11:                                               ; preds = %7
  %12 = getelementptr inbounds nuw i8, ptr %0, i64 16
  %13 = load i32, ptr %12, align 8, !tbaa !14
  %14 = getelementptr inbounds nuw i8, ptr %0, i64 8
  %15 = load i32, ptr %14, align 8, !tbaa !12
  %16 = add nsw i32 %15, -2
  %17 = shl i32 %13, 2
  %18 = mul i32 %17, %16
  %19 = sext i32 %18 to i64
  %20 = tail call noalias ptr @uprv_malloc_77(i64 noundef %19) #11
  %21 = icmp eq ptr %20, null
  br i1 %21, label %22, label %23

22:                                               ; preds = %11
  store i32 7, ptr %3, align 4, !tbaa !3
  br label %31

23:                                               ; preds = %11
  %24 = load ptr, ptr %0, align 8, !tbaa !7
  tail call void @llvm.memcpy.p0.p0.i64(ptr nonnull align 4 %20, ptr align 4 %24, i64 %19, i1 false)
  %.not22 = icmp eq ptr %1, null
  br i1 %.not22, label %27, label %25

25:                                               ; preds = %23
  %26 = load i32, ptr %12, align 8, !tbaa !14
  store i32 %26, ptr %1, align 4, !tbaa !15
  br label %27

27:                                               ; preds = %25, %23
  %.not23 = icmp eq ptr %2, null
  br i1 %.not23, label %31, label %28

28:                                               ; preds = %27
  %29 = load i32, ptr %14, align 8, !tbaa !12
  %30 = add nsw i32 %29, -2
  store i32 %30, ptr %2, align 4, !tbaa !15
  br label %31

31:                                               ; preds = %27, %28, %4, %22, %10
  %.0 = phi ptr [ null, %22 ], [ null, %10 ], [ null, %4 ], [ %20, %28 ], [ %20, %27 ]
  ret ptr %.0
}